(lp1
(lp2
S'D-382'
p3
aS'T-24'
p4
aa(lp5
S'D-382'
p6
aS'T-24'
p7
aa(lp8
S'D-382'
p9
aS'T-24'
p10
aa(lp11
S'D-382'
p12
aS'T-24'
p13
aa(lp14
S'D-382'
p15
aS'T-24'
p16
aa(lp17
S'D-362'
p18
aS'T-10'
p19
aa(lp20
S'D-362'
p21
aS'T-10'
p22
aa(lp23
S'D-362'
p24
aS'T-10'
p25
aa(lp26
S'D-362'
p27
aS'T-10'
p28
aa(lp29
S'D-362'
p30
aS'T-10'
p31
aa(lp32
S'D-362'
p33
aS'T-10'
p34
aa(lp35
S'D-362'
p36
aS'T-10'
p37
aa(lp38
S'D-362'
p39
aS'T-11'
p40
aa(lp41
S'D-362'
p42
aS'T-11'
p43
aa(lp44
S'D-362'
p45
aS'T-11'
p46
aa(lp47
S'D-362'
p48
aS'T-11'
p49
aa(lp50
S'D-362'
p51
aS'T-11'
p52
aa(lp53
S'D-362'
p54
aS'T-11'
p55
aa(lp56
S'D-498'
p57
aS'T-8'
p58
aa(lp59
S'D-498'
p60
aS'T-8'
p61
aa(lp62
S'D-498'
p63
aS'T-8'
p64
aa(lp65
S'D-498'
p66
aS'T-8'
p67
aa(lp68
S'D-498'
p69
aS'T-8'
p70
aa(lp71
S'D-362'
p72
aS'T-14'
p73
aa(lp74
S'D-362'
p75
aS'T-14'
p76
aa(lp77
S'D-362'
p78
aS'T-14'
p79
aa(lp80
S'D-362'
p81
aS'T-14'
p82
aa(lp83
S'D-362'
p84
aS'T-14'
p85
aa(lp86
S'D-362'
p87
aS'T-14'
p88
aa(lp89
S'D-362'
p90
aS'T-14'
p91
aa(lp92
S'D-298'
p93
aS'T-22'
p94
aa(lp95
S'D-298'
p96
aS'T-22'
p97
aa(lp98
S'D-298'
p99
aS'T-22'
p100
aa(lp101
S'D-298'
p102
aS'T-22'
p103
aa(lp104
S'D-298'
p105
aS'T-22'
p106
aa(lp107
S'D-298'
p108
aS'T-22'
p109
aa(lp110
S'D-298'
p111
aS'T-22'
p112
aa(lp113
S'D-298'
p114
aS'T-22'
p115
aa(lp116
S'D-298'
p117
aS'T-22'
p118
aa(lp119
S'D-298'
p120
aS'T-21'
p121
aa(lp122
S'D-298'
p123
aS'T-21'
p124
aa(lp125
S'D-298'
p126
aS'T-21'
p127
aa(lp128
S'D-298'
p129
aS'T-21'
p130
aa(lp131
S'D-298'
p132
aS'T-21'
p133
aa(lp134
S'D-298'
p135
aS'T-21'
p136
aa(lp137
S'D-382'
p138
aS'T-9'
p139
aa(lp140
S'D-382'
p141
aS'T-9'
p142
aa(lp143
S'D-382'
p144
aS'T-9'
p145
aa(lp146
S'D-382'
p147
aS'T-9'
p148
aa(lp149
S'D-382'
p150
aS'T-9'
p151
aa(lp152
S'D-382'
p153
aS'T-9'
p154
aa(lp155
S'D-382'
p156
aS'T-9'
p157
aa(lp158
S'D-382'
p159
aS'T-9'
p160
aa(lp161
S'D-382'
p162
aS'T-9'
p163
aa(lp164
S'D-382'
p165
aS'T-9'
p166
aa(lp167
S'D-382'
p168
aS'T-9'
p169
aa(lp170
S'D-382'
p171
aS'T-9'
p172
aa(lp173
S'D-485'
p174
aS'T-1'
p175
aa(lp176
S'D-485'
p177
aS'T-1'
p178
aa(lp179
S'D-485'
p180
aS'T-1'
p181
aa(lp182
S'D-485'
p183
aS'T-1'
p184
aa(lp185
S'D-485'
p186
aS'T-1'
p187
aa(lp188
S'D-485'
p189
aS'T-1'
p190
aa(lp191
S'D-485'
p192
aS'T-1'
p193
aa(lp194
S'D-485'
p195
aS'T-1'
p196
aa(lp197
S'D-485'
p198
aS'T-1'
p199
aa(lp200
S'D-485'
p201
aS'T-1'
p202
aa(lp203
S'D-485'
p204
aS'T-1'
p205
aa(lp206
S'D-485'
p207
aS'T-1'
p208
aa(lp209
S'D-298'
p210
aS'T-23'
p211
aa(lp212
S'D-298'
p213
aS'T-23'
p214
aa(lp215
S'D-298'
p216
aS'T-23'
p217
aa(lp218
S'D-298'
p219
aS'T-23'
p220
aa(lp221
S'D-382'
p222
aS'T-3'
p223
aa(lp224
S'D-382'
p225
aS'T-3'
p226
aa(lp227
S'D-382'
p228
aS'T-3'
p229
aa(lp230
S'D-382'
p231
aS'T-3'
p232
aa(lp233
S'D-382'
p234
aS'T-3'
p235
aa(lp236
S'D-382'
p237
aS'T-3'
p238
aa(lp239
S'D-382'
p240
aS'T-3'
p241
aa(lp242
S'D-382'
p243
aS'T-3'
p244
aa(lp245
S'D-382'
p246
aS'T-3'
p247
aa(lp248
S'D-382'
p249
aS'T-3'
p250
aa(lp251
S'D-382'
p252
aS'T-3'
p253
aa(lp254
S'D-382'
p255
aS'T-4'
p256
aa(lp257
S'D-382'
p258
aS'T-4'
p259
aa(lp260
S'D-382'
p261
aS'T-4'
p262
aa(lp263
S'D-382'
p264
aS'T-4'
p265
aa(lp266
S'D-382'
p267
aS'T-4'
p268
aa(lp269
S'D-382'
p270
aS'T-4'
p271
aa(lp272
S'D-382'
p273
aS'T-4'
p274
aa(lp275
S'D-382'
p276
aS'T-4'
p277
aa(lp278
S'D-498'
p279
aS'T-20'
p280
aa(lp281
S'D-498'
p282
aS'T-20'
p283
aa(lp284
S'D-498'
p285
aS'T-20'
p286
aa(lp287
S'D-498'
p288
aS'T-20'
p289
aa(lp290
S'D-498'
p291
aS'T-25'
p292
aa(lp293
S'D-498'
p294
aS'T-25'
p295
aa(lp296
S'D-498'
p297
aS'T-25'
p298
aa(lp299
S'D-498'
p300
aS'T-25'
p301
aa(lp302
S'D-498'
p303
aS'T-25'
p304
aa(lp305
S'D-498'
p306
aS'T-25'
p307
aa(lp308
S'D-498'
p309
aS'T-25'
p310
aa(lp311
S'D-362'
p312
aS'T-6'
p313
aa(lp314
S'D-362'
p315
aS'T-6'
p316
aa(lp317
S'D-362'
p318
aS'T-6'
p319
aa(lp320
S'D-362'
p321
aS'T-6'
p322
aa(lp323
S'D-362'
p324
aS'T-6'
p325
aa(lp326
S'D-362'
p327
aS'T-7'
p328
aa(lp329
S'D-362'
p330
aS'T-7'
p331
aa(lp332
S'D-362'
p333
aS'T-7'
p334
aa(lp335
S'D-362'
p336
aS'T-7'
p337
aa(lp338
S'D-362'
p339
aS'T-7'
p340
aa(lp341
S'D-362'
p342
aS'T-7'
p343
aa(lp344
S'D-362'
p345
aS'T-7'
p346
aa(lp347
S'D-382'
p348
aS'T-18'
p349
aa(lp350
S'D-382'
p351
aS'T-18'
p352
aa(lp353
S'D-382'
p354
aS'T-18'
p355
aa(lp356
S'D-382'
p357
aS'T-18'
p358
aa(lp359
S'D-382'
p360
aS'T-18'
p361
aa(lp362
S'D-485'
p363
aS'T-16'
p364
aa(lp365
S'D-485'
p366
aS'T-16'
p367
aa(lp368
S'D-485'
p369
aS'T-16'
p370
aa(lp371
S'D-485'
p372
aS'T-16'
p373
aa(lp374
S'D-485'
p375
aS'T-16'
p376
aa(lp377
S'D-485'
p378
aS'T-16'
p379
aa(lp380
S'D-485'
p381
aS'T-16'
p382
aa(lp383
S'D-485'
p384
aS'T-16'
p385
aa(lp386
S'D-485'
p387
aS'T-16'
p388
aa(lp389
S'D-485'
p390
aS'T-16'
p391
aa(lp392
S'D-485'
p393
aS'T-16'
p394
aa(lp395
S'D-485'
p396
aS'T-16'
p397
aa(lp398
S'D-485'
p399
aS'T-17'
p400
aa(lp401
S'D-485'
p402
aS'T-17'
p403
aa(lp404
S'D-485'
p405
aS'T-17'
p406
aa(lp407
S'D-485'
p408
aS'T-17'
p409
aa(lp410
S'D-485'
p411
aS'T-17'
p412
aa(lp413
S'D-485'
p414
aS'T-17'
p415
aa(lp416
S'D-485'
p417
aS'T-17'
p418
aa(lp419
S'D-485'
p420
aS'T-17'
p421
aa(lp422
S'D-485'
p423
aS'T-17'
p424
aa(lp425
S'D-485'
p426
aS'T-17'
p427
aa(lp428
S'D-485'
p429
aS'T-17'
p430
aa(lp431
S'D-485'
p432
aS'T-17'
p433
aa(lp434
S'D-298'
p435
aS'T-12'
p436
aa(lp437
S'D-298'
p438
aS'T-12'
p439
aa(lp440
S'D-298'
p441
aS'T-12'
p442
aa(lp443
S'D-298'
p444
aS'T-12'
p445
aa(lp446
S'D-298'
p447
aS'T-12'
p448
aa(lp449
S'D-298'
p450
aS'T-12'
p451
aa(lp452
S'D-298'
p453
aS'T-13'
p454
aa(lp455
S'D-298'
p456
aS'T-13'
p457
aa(lp458
S'D-298'
p459
aS'T-13'
p460
aa(lp461
S'D-298'
p462
aS'T-13'
p463
aa(lp464
S'D-298'
p465
aS'T-13'
p466
aa(lp467
S'D-298'
p468
aS'T-13'
p469
aa(lp470
S'D-498'
p471
aS'T-15'
p472
aa(lp473
S'D-498'
p474
aS'T-15'
p475
aa(lp476
S'D-498'
p477
aS'T-15'
p478
aa(lp479
S'D-498'
p480
aS'T-15'
p481
aa(lp482
S'D-498'
p483
aS'T-15'
p484
aa(lp485
S'D-498'
p486
aS'T-15'
p487
aa(lp488
S'D-498'
p489
aS'T-15'
p490
aa(lp491
S'D-498'
p492
aS'T-15'
p493
aa(lp494
S'D-498'
p495
aS'T-15'
p496
aa(lp497
S'D-498'
p498
aS'T-15'
p499
aa(lp500
S'D-498'
p501
aS'T-15'
p502
aa(lp503
S'D-498'
p504
aS'T-15'
p505
aa(lp506
S'D-485'
p507
aS'T-2'
p508
aa(lp509
S'D-485'
p510
aS'T-2'
p511
aa(lp512
S'D-485'
p513
aS'T-2'
p514
aa(lp515
S'D-485'
p516
aS'T-2'
p517
aa(lp518
S'D-485'
p519
aS'T-5'
p520
aa(lp521
S'D-485'
p522
aS'T-5'
p523
aa(lp524
S'D-485'
p525
aS'T-5'
p526
aa(lp527
S'D-485'
p528
aS'T-5'
p529
aa(lp530
S'D-485'
p531
aS'T-5'
p532
aa(lp533
S'D-498'
p534
aS'T-19'
p535
aa(lp536
S'D-498'
p537
aS'T-19'
p538
aa(lp539
S'D-498'
p540
aS'T-19'
p541
aa(lp542
S'D-498'
p543
aS'T-19'
p544
aa(lp545
S'D-498'
p546
aS'T-19'
p547
aa(lp548
S'D-498'
p549
aS'T-19'
p550
aa.